Certificate:
    Data:
        Version: 3 (0x2)
        Serial Number: 0 (0x0)
        Signature Algorithm: sha256WithRSAEncryption
        Issuer: C=CN, ST=JS, L=NJ, O=SELF, OU=SELF, CN=CA
        Validity
            Not Before: Jun  1 09:36:04 2023 GMT
            Not After : May 29 09:36:04 2033 GMT
        Subject: C=CN, ST=JS, O=SELF, OU=SELF, CN=SERVER
        Subject Public Key Info:
            Public Key Algorithm: rsaEncryption
                Public-Key: (2048 bit)
                Modulus:
                    00:fb:a5:c9:ce:e3:b9:5f:0d:23:1d:cb:04:28:e1:
                    6a:46:db:ff:b7:f6:94:16:fd:09:cc:8b:2f:c7:fc:
                    73:44:da:4f:d7:a9:ab:ec:de:db:5c:54:50:db:68:
                    2b:af:1e:50:88:10:a6:88:2e:d9:6c:d7:84:f4:1b:
                    9a:e2:82:4e:f8:90:9f:61:3b:a9:af:bd:4e:74:54:
                    d3:5f:df:10:2a:6f:9a:a1:bf:80:54:66:4e:1a:41:
                    d3:d3:67:c7:af:b8:fd:ab:4a:5c:b0:fa:43:25:28:
                    57:67:1d:e6:f1:2d:d4:9e:e2:eb:57:db:c0:a3:ad:
                    c0:a4:a7:df:13:07:43:a1:c8:88:d0:95:66:c3:0d:
                    58:5e:7d:bc:d4:c9:d4:5c:ec:48:af:e1:5b:0a:f6:
                    3a:e5:68:b2:61:7f:8c:45:59:43:47:a0:5e:a8:b1:
                    b5:4a:35:29:a5:45:e6:b0:59:8c:f7:5f:06:1d:3e:
                    1a:ed:c5:b5:56:5e:b6:4f:bb:9f:f5:62:10:07:48:
                    77:d0:a3:a9:df:fc:da:c8:f8:d5:f8:91:30:3f:41:
                    f7:58:37:14:14:0c:c9:e5:10:d3:c2:59:a0:81:ce:
                    8b:0f:af:b9:f7:a3:b9:4c:b1:49:3d:58:9c:ea:b6:
                    96:5d:b1:a1:8d:13:0b:03:54:80:a7:15:9f:fd:6b:
                    70:3f
                Exponent: 65537 (0x10001)
        X509v3 extensions:
            X509v3 Basic Constraints: 
                CA:FALSE
            X509v3 Subject Key Identifier: 
                F0:EB:B8:AA:C6:C9:D5:30:6D:51:23:6E:71:8C:81:67:0A:A5:C5:27
            X509v3 Authority Key Identifier: 
                2B:75:BB:F8:B6:51:17:60:0B:40:CF:78:77:50:4F:67:F7:64:D9:B4
    Signature Algorithm: sha256WithRSAEncryption
    Signature Value:
        20:45:0b:fc:ad:5e:f6:5c:f3:b7:ad:41:6a:1f:6f:25:66:f3:
        84:aa:17:5b:3a:40:e0:41:a6:f2:11:ef:5a:eb:b4:6a:42:1a:
        1f:60:21:b6:ab:54:0b:c9:7b:ba:e4:10:0d:00:cc:3a:d4:9a:
        c7:ec:c4:6e:c4:f4:42:65:d1:8a:2a:0b:e2:f3:ae:60:92:bf:
        5f:32:02:f6:57:fb:b7:b6:08:25:5c:8d:53:48:1d:74:fe:db:
        4e:b4:19:e3:1a:24:72:90:52:02:1d:2f:a4:63:48:d5:c1:4a:
        4b:54:9a:6b:7b:78:f7:22:09:d3:ad:8c:89:e9:68:7c:f0:c7:
        c5:c6:e7:bc:43:03:de:72:ab:55:1c:62:52:c6:d8:41:0a:f7:
        54:16:ea:c5:33:27:90:a7:5c:fd:86:2a:a6:bf:b0:0f:3c:b1:
        a3:2e:17:5c:36:f0:06:85:aa:b9:df:47:3c:e8:c4:02:cf:68:
        2a:b8:66:5d:15:f1:4c:55:6b:cd:ad:99:5e:89:3c:39:69:83:
        0d:b7:c0:33:d4:6d:c8:7e:d7:67:82:68:76:cc:69:78:41:93:
        ce:c1:03:06:4d:65:29:e5:69:68:63:ad:29:b9:ec:a7:74:f7:
        58:08:27:40:a1:9c:5b:44:9d:d7:59:03:b5:0a:c1:04:c6:ae:
        89:2b:3a:a3
-----BEGIN CERTIFICATE-----
MIIDYzCCAkugAwIBAgIBADANBgkqhkiG9w0BAQsFADBSMQswCQYDVQQGEwJDTjEL
MAkGA1UECAwCSlMxCzAJBgNVBAcMAk5KMQ0wCwYDVQQKDARTRUxGMQ0wCwYDVQQL
DARTRUxGMQswCQYDVQQDDAJDQTAeFw0yMzA2MDEwOTM2MDRaFw0zMzA1MjkwOTM2
MDRaMEkxCzAJBgNVBAYTAkNOMQswCQYDVQQIDAJKUzENMAsGA1UECgwEU0VMRjEN
MAsGA1UECwwEU0VMRjEPMA0GA1UEAwwGU0VSVkVSMIIBIjANBgkqhkiG9w0BAQEF
AAOCAQ8AMIIBCgKCAQEA+6XJzuO5Xw0jHcsEKOFqRtv/t/aUFv0JzIsvx/xzRNpP
16mr7N7bXFRQ22grrx5QiBCmiC7ZbNeE9Bua4oJO+JCfYTupr71OdFTTX98QKm+a
ob+AVGZOGkHT02fHr7j9q0pcsPpDJShXZx3m8S3UnuLrV9vAo63ApKffEwdDociI
0JVmww1YXn281MnUXOxIr+FbCvY65WiyYX+MRVlDR6BeqLG1SjUppUXmsFmM918G
HT4a7cW1Vl62T7uf9WIQB0h30KOp3/zayPjV+JEwP0H3WDcUFAzJ5RDTwlmggc6L
D6+596O5TLFJPVic6raWXbGhjRMLA1SApxWf/WtwPwIDAQABo00wSzAJBgNVHRME
AjAAMB0GA1UdDgQWBBTw67iqxsnVMG1RI25xjIFnCqXFJzAfBgNVHSMEGDAWgBQr
dbv4tlEXYAtAz3h3UE9n92TZtDANBgkqhkiG9w0BAQsFAAOCAQEAIEUL/K1e9lzz
t61Bah9vJWbzhKoXWzpA4EGm8hHvWuu0akIaH2AhtqtUC8l7uuQQDQDMOtSax+zE
bsT0QmXRiioL4vOuYJK/XzIC9lf7t7YIJVyNU0gddP7bTrQZ4xokcpBSAh0vpGNI
1cFKS1Saa3t49yIJ062MielofPDHxcbnvEMD3nKrVRxiUsbYQQr3VBbqxTMnkKdc
/YYqpr+wDzyxoy4XXDbwBoWqud9HPOjEAs9oKrhmXRXxTFVrza2ZXok8OWmDDbfA
M9RtyH7XZ4JodsxpeEGTzsEDBk1lKeVpaGOtKbnsp3T3WAgnQKGcW0Sd11kDtQrB
BMauiSs6ow==
-----END CERTIFICATE-----
